target datalayout = "e-m:e-p270:32:32-p271:32:32-p272:64:64-i64:64-i128:128-f80:128-n8:16:32:64-S128"
target triple = "x86_64-pc-linux-gnu"

%struct.quic_rcidm_st = type { %struct.quic_conn_id_st, %struct.quic_conn_id_st, %struct.quic_conn_id_st, i64, i64, i64, ptr, ptr, %struct.ossl_list_st_retiring, i64, i8 }
%struct.quic_conn_id_st = type { i8, [20 x i8] }
%struct.ossl_list_st_retiring = type { ptr, ptr, i64 }

; Function Attrs: nounwind uwtable
define i64 @ossl_quic_rcidm_get_num_retiring(ptr noundef %0) #0 {
  %2 = alloca ptr, align 8
  store ptr %0, ptr %2, align 8, !tbaa !8
  %3 = load ptr, ptr %2, align 8, !tbaa !8
  %4 = getelementptr inbounds nuw %struct.quic_rcidm_st, ptr %3, i32 0, i32 9
  %5 = load i64, ptr %4, align 8, !tbaa !38
  ret i64 %5
}

; Function Attrs: inlinehint nounwind uwtable
define internal i64 @ossl_pqueue_RCID_num(ptr noundef %0) #3 {
  %2 = alloca ptr, align 8
  store ptr %0, ptr %2, align 8, !tbaa !29
  %3 = load ptr, ptr %2, align 8, !tbaa !29
  %4 = call i64 @ossl_pqueue_num(ptr noundef %3)
  ret i64 %4
}

; Function Attrs: nounwind uwtable
define i64 @ossl_quic_rcidm_get_num_active(ptr noundef %0) #0 {
  %2 = alloca ptr, align 8
  store ptr %0, ptr %2, align 8, !tbaa !8
  %3 = load ptr, ptr %2, align 8, !tbaa !8
  %4 = getelementptr inbounds nuw %struct.quic_rcidm_st, ptr %3, i32 0, i32 6
  %5 = load ptr, ptr %4, align 8, !tbaa !10
  %6 = call i64 @ossl_pqueue_RCID_num(ptr noundef %5)
  %7 = load ptr, ptr %2, align 8, !tbaa !8
  %8 = getelementptr inbounds nuw %struct.quic_rcidm_st, ptr %7, i32 0, i32 7
  %9 = load ptr, ptr %8, align 8, !tbaa !25
  %10 = icmp ne ptr %9, null
  %11 = select i1 %10, i32 1, i32 0
  %12 = sext i32 %11 to i64
  %13 = add i64 %6, %12
  %14 = load ptr, ptr %2, align 8, !tbaa !8
  %15 = call i64 @ossl_quic_rcidm_get_num_retiring(ptr noundef %14)
  %16 = add i64 %13, %15
  ret i64 %16
}