; Function Attrs: nounwind uwtable
define i64 @ossl_quic_rcidm_get_num_active(ptr noundef readonly captures(none) %0) local_unnamed_addr #0 {
  %2 = getelementptr inbounds nuw i8, ptr %0, i64 88
  %3 = load ptr, ptr %2, align 8, !tbaa !3
  %4 = tail call i64 @ossl_pqueue_num(ptr noundef %3) #9
  %5 = getelementptr inbounds nuw i8, ptr %0, i64 96
  %6 = load ptr, ptr %5, align 8, !tbaa !19
  %.not = icmp ne ptr %6, null
  %7 = zext i1 %.not to i64
  %8 = getelementptr inbounds nuw i8, ptr %0, i64 128
  %9 = load i64, ptr %8, align 8, !tbaa !28
  %10 = add i64 %9, %4
  %11 = add i64 %10, %7
  ret i64 %11
}